; ModuleID = 'source-C-CXX/39/2047.c'
source_filename = "source-C-CXX/39/2047.c"
target datalayout = "e-m:e-p270:32:32-p271:32:32-p272:64:64-i64:64-f80:128-n8:16:32:64-S128"
target triple = "x86_64-pc-linux-gnu"

@.str = private unnamed_addr constant [20 x i8] c"%lf %lf %lf %lf %lf\00", align 1
@.str.1 = private unnamed_addr constant [14 x i8] c"Invalid input\00", align 1
@.str.2 = private unnamed_addr constant [6 x i8] c"%.4lf\00", align 1

; Function Attrs: nofree nounwind sspstrong uwtable
define dso_local void @main() local_unnamed_addr #0 {
  %1 = alloca double, align 8
  %2 = alloca double, align 8
  %3 = alloca double, align 8
  %4 = alloca double, align 8
  %5 = alloca double, align 8
  %6 = bitcast double* %1 to i8*
  call void @llvm.lifetime.start.p0i8(i64 8, i8* nonnull %6) #4
  store double 0.000000e+00, double* %1, align 8, !tbaa !5
  %7 = bitcast double* %2 to i8*
  call void @llvm.lifetime.start.p0i8(i64 8, i8* nonnull %7) #4
  store double 0.000000e+00, double* %2, align 8, !tbaa !5
  %8 = bitcast double* %3 to i8*
  call void @llvm.lifetime.start.p0i8(i64 8, i8* nonnull %8) #4
  store double 0.000000e+00, double* %3, align 8, !tbaa !5
  %9 = bitcast double* %4 to i8*
  call void @llvm.lifetime.start.p0i8(i64 8, i8* nonnull %9) #4
  store double 0.000000e+00, double* %4, align 8, !tbaa !5
  %10 = bitcast double* %5 to i8*
  call void @llvm.lifetime.start.p0i8(i64 8, i8* nonnull %10) #4
  store double 0.000000e+00, double* %5, align 8, !tbaa !5
  %11 = call i32 (i8*, ...) @__isoc99_scanf(i8* getelementptr inbounds ([20 x i8], [20 x i8]* @.str, i64 0, i64 0), double* nonnull %1, double* nonnull %2, double* nonnull %3, double* nonnull %4, double* nonnull %5)
  %12 = load double, double* %5, align 8, !tbaa !5
  %13 = fdiv double %12, 3.600000e+02
  %14 = fmul double %13, 3.140000e+00
  store double %14, double* %5, align 8, !tbaa !5
  %15 = load double, double* %1, align 8, !tbaa !5
  %16 = load double, double* %2, align 8, !tbaa !5
  %17 = fadd double %15, %16
  %18 = load double, double* %3, align 8, !tbaa !5
  %19 = fadd double %17, %18
  %20 = load double, double* %4, align 8, !tbaa !5
  %21 = fadd double %19, %20
  %22 = fmul double %21, 5.000000e-01
  %23 = fsub double %22, %15
  %24 = fsub double %22, %16
  %25 = fmul double %23, %24
  %26 = fsub double %22, %18
  %27 = fmul double %26, %25
  %28 = fsub double %22, %20
  %29 = fmul double %28, %27
  %30 = fmul double %15, %16
  %31 = fmul double %30, %18
  %32 = fmul double %31, %20
  %33 = call double @cos(double %14) #4
  %34 = fmul double %32, %33
  %35 = load double, double* %5, align 8, !tbaa !5
  %36 = call double @cos(double %35) #4
  %37 = fmul double %34, %36
  %38 = fsub double %29, %37
  %39 = fcmp olt double %38, 0.000000e+00
  br i1 %39, label %40, label %42

40:                                               ; preds = %0
  %41 = call i32 (i8*, ...) @printf(i8* nonnull dereferenceable(1) getelementptr inbounds ([14 x i8], [14 x i8]* @.str.1, i64 0, i64 0))
  br label %45

42:                                               ; preds = %0
  %43 = call double @sqrt(double %38) #4
  %44 = call i32 (i8*, ...) @printf(i8* nonnull dereferenceable(1) getelementptr inbounds ([6 x i8], [6 x i8]* @.str.2, i64 0, i64 0), double %43)
  br label %45

45:                                               ; preds = %42, %40
  call void @llvm.lifetime.end.p0i8(i64 8, i8* nonnull %10) #4
  call void @llvm.lifetime.end.p0i8(i64 8, i8* nonnull %9) #4
  call void @llvm.lifetime.end.p0i8(i64 8, i8* nonnull %8) #4
  call void @llvm.lifetime.end.p0i8(i64 8, i8* nonnull %7) #4
  call void @llvm.lifetime.end.p0i8(i64 8, i8* nonnull %6) #4
  ret void
}

; Function Attrs: argmemonly mustprogress nofree nosync nounwind willreturn
declare void @llvm.lifetime.start.p0i8(i64 immarg, i8* nocapture) #1

; Function Attrs: nofree nounwind
declare noundef i32 @__isoc99_scanf(i8* nocapture noundef readonly, ...) local_unnamed_addr #2

; Function Attrs: mustprogress nofree nounwind willreturn
declare double @cos(double) local_unnamed_addr #3

; Function Attrs: nofree nounwind
declare noundef i32 @printf(i8* nocapture noundef readonly, ...) local_unnamed_addr #2

; Function Attrs: mustprogress nofree nounwind willreturn
declare double @sqrt(double) local_unnamed_addr #3

; Function Attrs: argmemonly mustprogress nofree nosync nounwind willreturn
declare void @llvm.lifetime.end.p0i8(i64 immarg, i8* nocapture) #1


!llvm.module.flags = !{!0, !1, !2, !3}
!llvm.ident = !{!4}

!0 = !{i32 1, !"wchar_size", i32 4}
!1 = !{i32 7, !"PIC Level", i32 2}
!2 = !{i32 7, !"PIE Level", i32 2}
!3 = !{i32 7, !"uwtable", i32 1}
!4 = !{!"clang version 13.0.0"}
!5 = !{!6, !6, i64 0}
!6 = !{!"double", !7, i64 0}
!7 = !{!"omnipotent char", !8, i64 0}
!8 = !{!"Simple C/C++ TBAA"}
